target datalayout = "e-m:e-p270:32:32-p271:32:32-p272:64:64-i64:64-i128:128-f80:128-n8:16:32:64-S128"
target triple = "x86_64-pc-linux-gnu"

%struct.dsa_st = type { i32, i32, %struct.ffc_params_st, ptr, ptr, i32, ptr, %struct.CRYPTO_REF_COUNT, %struct.crypto_ex_data_st, ptr, ptr, ptr, ptr, i64 }
%struct.ffc_params_st = type { ptr, ptr, ptr, ptr, ptr, i64, i32, i32, i32, i32, i32, ptr, ptr, i32 }
%struct.CRYPTO_REF_COUNT = type { i32 }
%struct.crypto_ex_data_st = type { ptr, ptr }

; Function Attrs: nounwind uwtable
define ptr @DSA_dup_DH(ptr noundef %0) #0 {
  %2 = alloca ptr, align 8
  %3 = alloca ptr, align 8
  %4 = alloca ptr, align 8
  %5 = alloca ptr, align 8
  %6 = alloca ptr, align 8
  %7 = alloca i32, align 4
  store ptr %0, ptr %3, align 8, !tbaa !3
  call void @llvm.lifetime.start.p0(i64 8, ptr %4) #4
  store ptr null, ptr %4, align 8, !tbaa !11
  call void @llvm.lifetime.start.p0(i64 8, ptr %5) #4
  store ptr null, ptr %5, align 8, !tbaa !13
  call void @llvm.lifetime.start.p0(i64 8, ptr %6) #4
  store ptr null, ptr %6, align 8, !tbaa !13
  %8 = load ptr, ptr %3, align 8, !tbaa !3
  %9 = icmp eq ptr %8, null
  br i1 %9, label %10, label %11

10:                                               ; preds = %1
  br label %68

11:                                               ; preds = %1
  %12 = call ptr @DH_new()
  store ptr %12, ptr %4, align 8, !tbaa !11
  %13 = load ptr, ptr %4, align 8, !tbaa !11
  %14 = icmp eq ptr %13, null
  br i1 %14, label %15, label %16

15:                                               ; preds = %11
  br label %68

16:                                               ; preds = %11
  %17 = load ptr, ptr %4, align 8, !tbaa !11
  %18 = call ptr @ossl_dh_get0_params(ptr noundef %17)
  %19 = load ptr, ptr %3, align 8, !tbaa !3
  %20 = getelementptr inbounds nuw %struct.dsa_st, ptr %19, i32 0, i32 2
  %21 = call i32 @ossl_ffc_params_copy(ptr noundef %18, ptr noundef %20)
  %22 = icmp ne i32 %21, 0
  br i1 %22, label %24, label %23

23:                                               ; preds = %16
  br label %68

24:                                               ; preds = %16
  %25 = load ptr, ptr %3, align 8, !tbaa !3
  %26 = getelementptr inbounds nuw %struct.dsa_st, ptr %25, i32 0, i32 3
  %27 = load ptr, ptr %26, align 8, !tbaa !15
  %28 = icmp ne ptr %27, null
  br i1 %28, label %29, label %59

29:                                               ; preds = %24
  %30 = load ptr, ptr %3, align 8, !tbaa !3
  %31 = getelementptr inbounds nuw %struct.dsa_st, ptr %30, i32 0, i32 3
  %32 = load ptr, ptr %31, align 8, !tbaa !15
  %33 = call ptr @BN_dup(ptr noundef %32)
  store ptr %33, ptr %5, align 8, !tbaa !13
  %34 = load ptr, ptr %5, align 8, !tbaa !13
  %35 = icmp eq ptr %34, null
  br i1 %35, label %36, label %37

36:                                               ; preds = %29
  br label %68

37:                                               ; preds = %29
  %38 = load ptr, ptr %3, align 8, !tbaa !3
  %39 = getelementptr inbounds nuw %struct.dsa_st, ptr %38, i32 0, i32 4
  %40 = load ptr, ptr %39, align 8, !tbaa !27
  %41 = icmp ne ptr %40, null
  br i1 %41, label %42, label %51

42:                                               ; preds = %37
  %43 = load ptr, ptr %3, align 8, !tbaa !3
  %44 = getelementptr inbounds nuw %struct.dsa_st, ptr %43, i32 0, i32 4
  %45 = load ptr, ptr %44, align 8, !tbaa !27
  %46 = call ptr @BN_dup(ptr noundef %45)
  store ptr %46, ptr %6, align 8, !tbaa !13
  %47 = load ptr, ptr %6, align 8, !tbaa !13
  %48 = icmp eq ptr %47, null
  br i1 %48, label %49, label %50

49:                                               ; preds = %42
  br label %68

50:                                               ; preds = %42
  br label %51

51:                                               ; preds = %50, %37
  %52 = load ptr, ptr %4, align 8, !tbaa !11
  %53 = load ptr, ptr %5, align 8, !tbaa !13
  %54 = load ptr, ptr %6, align 8, !tbaa !13
  %55 = call i32 @DH_set0_key(ptr noundef %52, ptr noundef %53, ptr noundef %54)
  %56 = icmp ne i32 %55, 0
  br i1 %56, label %58, label %57

57:                                               ; preds = %51
  br label %68

58:                                               ; preds = %51
  br label %66

59:                                               ; preds = %24
  %60 = load ptr, ptr %3, align 8, !tbaa !3
  %61 = getelementptr inbounds nuw %struct.dsa_st, ptr %60, i32 0, i32 4
  %62 = load ptr, ptr %61, align 8, !tbaa !27
  %63 = icmp ne ptr %62, null
  br i1 %63, label %64, label %65

64:                                               ; preds = %59
  br label %68

65:                                               ; preds = %59
  br label %66

66:                                               ; preds = %65, %58
  %67 = load ptr, ptr %4, align 8, !tbaa !11
  store ptr %67, ptr %2, align 8
  store i32 1, ptr %7, align 4
  br label %72

68:                                               ; preds = %64, %57, %49, %36, %23, %15, %10
  %69 = load ptr, ptr %5, align 8, !tbaa !13
  call void @BN_free(ptr noundef %69)
  %70 = load ptr, ptr %6, align 8, !tbaa !13
  call void @BN_free(ptr noundef %70)
  %71 = load ptr, ptr %4, align 8, !tbaa !11
  call void @DH_free(ptr noundef %71)
  store ptr null, ptr %2, align 8
  store i32 1, ptr %7, align 4
  br label %72

72:                                               ; preds = %68, %66
  call void @llvm.lifetime.end.p0(i64 8, ptr %6) #4
  call void @llvm.lifetime.end.p0(i64 8, ptr %5) #4
  call void @llvm.lifetime.end.p0(i64 8, ptr %4) #4
  %73 = load ptr, ptr %2, align 8
  ret ptr %73
}