; Function Attrs: nounwind uwtable
define ptr @DSA_dup_DH(ptr noundef %0) local_unnamed_addr #0 {
  %2 = icmp eq ptr %0, null
  br i1 %2, label %27, label %3

3:                                                ; preds = %1
  %4 = tail call ptr @DH_new() #7
  %5 = icmp eq ptr %4, null
  br i1 %5, label %27, label %6

6:                                                ; preds = %3
  %7 = tail call ptr @ossl_dh_get0_params(ptr noundef nonnull %4) #7
  %8 = getelementptr inbounds nuw i8, ptr %0, i64 8
  %9 = tail call i32 @ossl_ffc_params_copy(ptr noundef %7, ptr noundef nonnull %8) #7
  %.not = icmp eq i32 %9, 0
  br i1 %.not, label %27, label %10

10:                                               ; preds = %6
  %11 = getelementptr inbounds nuw i8, ptr %0, i64 104
  %12 = load ptr, ptr %11, align 8, !tbaa !3
  %.not31 = icmp eq ptr %12, null
  br i1 %.not31, label %24, label %13

13:                                               ; preds = %10
  %14 = tail call ptr @BN_dup(ptr noundef nonnull %12) #7
  %15 = icmp eq ptr %14, null
  br i1 %15, label %27, label %16

16:                                               ; preds = %13
  %17 = getelementptr inbounds nuw i8, ptr %0, i64 112
  %18 = load ptr, ptr %17, align 8, !tbaa !20
  %.not33 = icmp eq ptr %18, null
  br i1 %.not33, label %22, label %19

19:                                               ; preds = %16
  %20 = tail call ptr @BN_dup(ptr noundef nonnull %18) #7
  %21 = icmp eq ptr %20, null
  br i1 %21, label %27, label %22

22:                                               ; preds = %19, %16
  %.1 = phi ptr [ %20, %19 ], [ null, %16 ]
  %23 = tail call i32 @DH_set0_key(ptr noundef nonnull %4, ptr noundef nonnull %14, ptr noundef %.1) #7
  %.not34 = icmp eq i32 %23, 0
  br i1 %.not34, label %27, label %28

24:                                               ; preds = %10
  %25 = getelementptr inbounds nuw i8, ptr %0, i64 112
  %26 = load ptr, ptr %25, align 8, !tbaa !20
  %.not32 = icmp eq ptr %26, null
  br i1 %.not32, label %28, label %27

27:                                               ; preds = %24, %22, %19, %13, %6, %3, %1
  %.020 = phi ptr [ null, %1 ], [ null, %3 ], [ %4, %13 ], [ %4, %19 ], [ %4, %22 ], [ %4, %24 ], [ %4, %6 ]
  %.019 = phi ptr [ null, %1 ], [ null, %3 ], [ null, %13 ], [ %14, %19 ], [ %14, %22 ], [ null, %24 ], [ null, %6 ]
  %.0 = phi ptr [ null, %1 ], [ null, %3 ], [ null, %13 ], [ null, %19 ], [ %.1, %22 ], [ null, %24 ], [ null, %6 ]
  tail call void @BN_free(ptr noundef %.019) #7
  tail call void @BN_free(ptr noundef %.0) #7
  tail call void @DH_free(ptr noundef %.020) #7
  br label %28

28:                                               ; preds = %22, %24, %27
  %.021 = phi ptr [ null, %27 ], [ %4, %24 ], [ %4, %22 ]
  ret ptr %.021
}